target datalayout = "e-m:e-p270:32:32-p271:32:32-p272:64:64-i64:64-i128:128-f80:128-n8:16:32:64-S128"
target triple = "x86_64-pc-linux-gnu"

%"class.facebook::yoga::Config" = type { ptr, ptr, i8, i32, %"class.std::bitset", i32, float, ptr }
%"class.std::bitset" = type { %"struct.std::_Base_bitset" }
%"struct.std::_Base_bitset" = type { i64 }

@_ZZN8facebook4yoga6Config10getDefaultEvE6config = internal global %"class.facebook::yoga::Config" zeroinitializer, align 8
@_ZGVZN8facebook4yoga6Config10getDefaultEvE6config = internal global i64 0, align 8

; Function Attrs: mustprogress nounwind uwtable
define linkonce_odr void @_ZNSt12_Base_bitsetILm1EEC2Ev(ptr noundef nonnull align 8 dereferenceable(8) %0) unnamed_addr #1 comdat align 2 {
  %2 = alloca ptr, align 8
  store ptr %0, ptr %2, align 8, !tbaa !46
  %3 = load ptr, ptr %2, align 8
  %4 = getelementptr inbounds nuw %"struct.std::_Base_bitset", ptr %3, i32 0, i32 0
  store i64 0, ptr %4, align 8, !tbaa !48
  ret void
}

; Function Attrs: mustprogress nounwind uwtable
define linkonce_odr void @_ZNSt6bitsetILm1EEC2Ev(ptr noundef nonnull align 8 dereferenceable(8) %0) unnamed_addr #1 comdat align 2 {
  %2 = alloca ptr, align 8
  store ptr %0, ptr %2, align 8, !tbaa !18
  %3 = load ptr, ptr %2, align 8
  call void @_ZNSt12_Base_bitsetILm1EEC2Ev(ptr noundef nonnull align 8 dereferenceable(8) %3) #6
  ret void
}

; Function Attrs: mustprogress nounwind uwtable
define linkonce_odr void @_ZN8facebook4yoga6ConfigC2EPFiPK8YGConfigPK6YGNode10YGLogLevelPKcP13__va_list_tagE(ptr noundef nonnull align 8 dereferenceable(48) %0, ptr noundef %1) unnamed_addr #1 comdat align 2 {
  %3 = alloca ptr, align 8
  %4 = alloca ptr, align 8
  store ptr %0, ptr %3, align 8, !tbaa !4
  store ptr %1, ptr %4, align 8, !tbaa !29
  %5 = load ptr, ptr %3, align 8
  %6 = getelementptr inbounds nuw %"class.facebook::yoga::Config", ptr %5, i32 0, i32 0
  store ptr null, ptr %6, align 8, !tbaa !42
  %7 = getelementptr inbounds nuw %"class.facebook::yoga::Config", ptr %5, i32 0, i32 1
  %8 = load ptr, ptr %4, align 8, !tbaa !29
  store ptr %8, ptr %7, align 8, !tbaa !33
  %9 = getelementptr inbounds nuw %"class.facebook::yoga::Config", ptr %5, i32 0, i32 2
  %10 = load i8, ptr %9, align 8
  %11 = and i8 %10, -2
  %12 = or i8 %11, 0
  store i8 %12, ptr %9, align 8
  %13 = getelementptr inbounds nuw %"class.facebook::yoga::Config", ptr %5, i32 0, i32 3
  store i32 0, ptr %13, align 4, !tbaa !26
  %14 = getelementptr inbounds nuw %"class.facebook::yoga::Config", ptr %5, i32 0, i32 4
  call void @_ZNSt6bitsetILm1EEC2Ev(ptr noundef nonnull align 8 dereferenceable(8) %14) #6
  %15 = getelementptr inbounds nuw %"class.facebook::yoga::Config", ptr %5, i32 0, i32 5
  store i32 0, ptr %15, align 8, !tbaa !9
  %16 = getelementptr inbounds nuw %"class.facebook::yoga::Config", ptr %5, i32 0, i32 6
  store float 1.000000e+00, ptr %16, align 4, !tbaa !20
  %17 = getelementptr inbounds nuw %"class.facebook::yoga::Config", ptr %5, i32 0, i32 7
  store ptr null, ptr %17, align 8, !tbaa !32
  ret void
}

; Function Attrs: mustprogress uwtable
define noundef nonnull align 8 dereferenceable(48) ptr @_ZN8facebook4yoga6Config10getDefaultEv() #0 align 2 personality ptr @__gxx_personality_v0 {
  %1 = alloca ptr, align 8
  %2 = alloca i32, align 4
  %3 = load atomic i8, ptr @_ZGVZN8facebook4yoga6Config10getDefaultEvE6config acquire, align 8
  %4 = icmp eq i8 %3, 0
  br i1 %4, label %5, label %12, !prof !45

5:                                                ; preds = %0
  %6 = call i32 @__cxa_guard_acquire(ptr @_ZGVZN8facebook4yoga6Config10getDefaultEvE6config) #6
  %7 = icmp ne i32 %6, 0
  br i1 %7, label %8, label %12

8:                                                ; preds = %5
  %9 = invoke noundef ptr @_ZN8facebook4yoga16getDefaultLoggerEv()
          to label %10 unwind label %13

10:                                               ; preds = %8
  invoke void @_ZN8facebook4yoga6ConfigC2EPFiPK8YGConfigPK6YGNode10YGLogLevelPKcP13__va_list_tagE(ptr noundef nonnull align 8 dereferenceable(48) @_ZZN8facebook4yoga6Config10getDefaultEvE6config, ptr noundef %9)
          to label %11 unwind label %13

11:                                               ; preds = %10
  call void @__cxa_guard_release(ptr @_ZGVZN8facebook4yoga6Config10getDefaultEvE6config) #6
  br label %12

12:                                               ; preds = %11, %5, %0
  ret ptr @_ZZN8facebook4yoga6Config10getDefaultEvE6config

13:                                               ; preds = %10, %8
  %14 = landingpad { ptr, i32 }
          cleanup
  %15 = extractvalue { ptr, i32 } %14, 0
  store ptr %15, ptr %1, align 8
  %16 = extractvalue { ptr, i32 } %14, 1
  store i32 %16, ptr %2, align 4
  call void @__cxa_guard_abort(ptr @_ZGVZN8facebook4yoga6Config10getDefaultEvE6config) #6
  br label %17

17:                                               ; preds = %13
  %18 = load ptr, ptr %1, align 8
  %19 = load i32, ptr %2, align 4
  %20 = insertvalue { ptr, i32 } poison, ptr %18, 0
  %21 = insertvalue { ptr, i32 } %20, i32 %19, 1
  resume { ptr, i32 } %21
}