; Function Attrs: mustprogress uwtable
define noundef nonnull align 8 dereferenceable(48) ptr @_ZN8facebook4yoga6Config10getDefaultEv() local_unnamed_addr #2 align 2 personality ptr @__gxx_personality_v0 {
  %1 = load atomic i8, ptr @_ZGVZN8facebook4yoga6Config10getDefaultEvE6config acquire, align 8
  %2 = icmp eq i8 %1, 0
  br i1 %2, label %3, label %10, !prof !24

3:                                                ; preds = %0
  %4 = tail call i32 @__cxa_guard_acquire(ptr nonnull @_ZGVZN8facebook4yoga6Config10getDefaultEvE6config) #9
  %.not = icmp eq i32 %4, 0
  br i1 %.not, label %10, label %5

5:                                                ; preds = %3
  %6 = invoke noundef ptr @_ZN8facebook4yoga16getDefaultLoggerEv()
          to label %7 unwind label %11

7:                                                ; preds = %5
  store ptr null, ptr @_ZZN8facebook4yoga6Config10getDefaultEvE6config, align 8, !tbaa !23
  store ptr %6, ptr getelementptr inbounds nuw (i8, ptr @_ZZN8facebook4yoga6Config10getDefaultEvE6config, i64 8), align 8, !tbaa !22
  %8 = load i8, ptr getelementptr inbounds nuw (i8, ptr @_ZZN8facebook4yoga6Config10getDefaultEvE6config, i64 16), align 8
  %9 = and i8 %8, -2
  store i8 %9, ptr getelementptr inbounds nuw (i8, ptr @_ZZN8facebook4yoga6Config10getDefaultEvE6config, i64 16), align 8
  tail call void @llvm.memset.p0.i64(ptr noundef nonnull align 4 dereferenceable(16) getelementptr inbounds nuw (i8, ptr @_ZZN8facebook4yoga6Config10getDefaultEvE6config, i64 20), i8 0, i64 16, i1 false)
  store float 1.000000e+00, ptr getelementptr inbounds nuw (i8, ptr @_ZZN8facebook4yoga6Config10getDefaultEvE6config, i64 36), align 4, !tbaa !16
  store ptr null, ptr getelementptr inbounds nuw (i8, ptr @_ZZN8facebook4yoga6Config10getDefaultEvE6config, i64 40), align 8, !tbaa !21
  tail call void @__cxa_guard_release(ptr nonnull @_ZGVZN8facebook4yoga6Config10getDefaultEvE6config) #9
  br label %10

10:                                               ; preds = %7, %3, %0
  ret ptr @_ZZN8facebook4yoga6Config10getDefaultEvE6config

11:                                               ; preds = %5
  %12 = landingpad { ptr, i32 }
          cleanup
  tail call void @__cxa_guard_abort(ptr nonnull @_ZGVZN8facebook4yoga6Config10getDefaultEvE6config) #9
  resume { ptr, i32 } %12
}